target datalayout = "e-m:e-p270:32:32-p271:32:32-p272:64:64-i64:64-i128:128-f80:128-n8:16:32:64-S128"
target triple = "x86_64-unknown-linux-gnu"

%"class.hermes::parser::detail::JSParserImpl" = type { ptr, ptr, %"class.hermes::parser::JSLexer", ptr, i32, ptr, i32, i8, i8, i8, %"class.llvh::SmallVector.15", i32, i8, i8, ptr, ptr, ptr, ptr, ptr, ptr, ptr, ptr, ptr, ptr, ptr, ptr, ptr, ptr, ptr, ptr, ptr, ptr, ptr, ptr, ptr, ptr, ptr, ptr, ptr, ptr, ptr, ptr, ptr, ptr, ptr, ptr, ptr, ptr, ptr, ptr, ptr, ptr, ptr, ptr, ptr, ptr, ptr, ptr, ptr, ptr, ptr, ptr, ptr, ptr, ptr, ptr, ptr, ptr, ptr, ptr, ptr, ptr, ptr, ptr, ptr, ptr, ptr, ptr, ptr, ptr, ptr, ptr, ptr, ptr, ptr, [122 x ptr] }
%"class.hermes::parser::JSLexer" = type { ptr, ptr, i32, %"class.std::unique_ptr.2", ptr, ptr, i8, i8, i8, i8, [4 x i8], %"class.hermes::parser::Token", %"class.llvh::SMLoc", ptr, ptr, ptr, i8, %"class.llvh::SmallString", %"class.llvh::SmallString", [46 x ptr], %"class.std::vector", %"class.std::vector.10" }
%"class.std::unique_ptr.2" = type { %"struct.std::__uniq_ptr_data.3" }
%"struct.std::__uniq_ptr_data.3" = type { %"class.std::__uniq_ptr_impl.4" }
%"class.std::__uniq_ptr_impl.4" = type { %"class.std::tuple.5" }
%"class.std::tuple.5" = type { %"struct.std::_Tuple_impl.6" }
%"struct.std::_Tuple_impl.6" = type { %"struct.std::_Head_base.9" }
%"struct.std::_Head_base.9" = type { ptr }
%"class.hermes::parser::Token" = type <{ i32, [4 x i8], %"class.llvh::SMRange", double, ptr, ptr, ptr, ptr, i8, [7 x i8] }>
%"class.llvh::SMRange" = type { %"class.llvh::SMLoc", %"class.llvh::SMLoc" }
%"class.llvh::SMLoc" = type { ptr }
%"class.llvh::SmallString" = type { %"class.llvh::SmallVector" }
%"class.llvh::SmallVector" = type { %"class.llvh::SmallVectorImpl", %"struct.llvh::SmallVectorStorage" }
%"class.llvh::SmallVectorImpl" = type { %"class.llvh::SmallVectorTemplateBase" }
%"class.llvh::SmallVectorTemplateBase" = type { %"class.llvh::SmallVectorTemplateCommon" }
%"class.llvh::SmallVectorTemplateCommon" = type { %"class.llvh::SmallVectorBase" }
%"class.llvh::SmallVectorBase" = type { ptr, i32, i32 }
%"struct.llvh::SmallVectorStorage" = type { [256 x %"struct.llvh::AlignedCharArrayUnion"] }
%"struct.llvh::AlignedCharArrayUnion" = type { %"struct.llvh::AlignedCharArray" }
%"struct.llvh::AlignedCharArray" = type { [1 x i8] }
%"class.std::vector" = type { %"struct.std::_Vector_base" }
%"struct.std::_Vector_base" = type { %"struct.std::_Vector_base<hermes::parser::StoredComment, std::allocator<hermes::parser::StoredComment>>::_Vector_impl" }
%"struct.std::_Vector_base<hermes::parser::StoredComment, std::allocator<hermes::parser::StoredComment>>::_Vector_impl" = type { %"struct.std::_Vector_base<hermes::parser::StoredComment, std::allocator<hermes::parser::StoredComment>>::_Vector_impl_data" }
%"struct.std::_Vector_base<hermes::parser::StoredComment, std::allocator<hermes::parser::StoredComment>>::_Vector_impl_data" = type { ptr, ptr, ptr }
%"class.std::vector.10" = type { %"struct.std::_Vector_base.11" }
%"struct.std::_Vector_base.11" = type { %"struct.std::_Vector_base<hermes::parser::StoredToken, std::allocator<hermes::parser::StoredToken>>::_Vector_impl" }
%"struct.std::_Vector_base<hermes::parser::StoredToken, std::allocator<hermes::parser::StoredToken>>::_Vector_impl" = type { %"struct.std::_Vector_base<hermes::parser::StoredToken, std::allocator<hermes::parser::StoredToken>>::_Vector_impl_data" }
%"struct.std::_Vector_base<hermes::parser::StoredToken, std::allocator<hermes::parser::StoredToken>>::_Vector_impl_data" = type { ptr, ptr, ptr }
%"class.llvh::SmallVector.15" = type { %"class.llvh::SmallVectorImpl.16", %"struct.llvh::SmallVectorStorage.19" }
%"class.llvh::SmallVectorImpl.16" = type { %"class.llvh::SmallVectorTemplateBase.17" }
%"class.llvh::SmallVectorTemplateBase.17" = type { %"class.llvh::SmallVectorTemplateCommon.18" }
%"class.llvh::SmallVectorTemplateCommon.18" = type { %"class.llvh::SmallVectorBase" }
%"struct.llvh::SmallVectorStorage.19" = type { [1 x %"struct.llvh::AlignedCharArrayUnion.20"] }
%"struct.llvh::AlignedCharArrayUnion.20" = type { %"struct.llvh::AlignedCharArray.21" }
%"struct.llvh::AlignedCharArray.21" = type { [8 x i8] }

; Function Attrs: mustprogress nounwind uwtable
define linkonce_odr hidden noundef zeroext i1 @_ZNK6hermes6parser6detail12JSParserImpl6checkNINS0_9TokenKindEEEbT_(ptr noundef nonnull align 8 dereferenceable(2752) %this, i32 noundef %t) #0 comdat align 2 {
entry:
  %this.addr = alloca ptr, align 8
  %t.addr = alloca i32, align 4
  store ptr %this, ptr %this.addr, align 8
  store i32 %t, ptr %t.addr, align 4
  %this1 = load ptr, ptr %this.addr, align 8
  %0 = load i32, ptr %t.addr, align 4
  %call = call noundef zeroext i1 @_ZNK6hermes6parser6detail12JSParserImpl5checkENS0_9TokenKindE(ptr noundef nonnull align 8 dereferenceable(2752) %this1, i32 noundef %0)
  ret i1 %call
}

; Function Attrs: mustprogress nounwind uwtable
define linkonce_odr hidden noundef zeroext i1 @_ZNK6hermes6parser6detail12JSParserImpl6checkNINS0_9TokenKindEJS4_EEEbT_DpT0_(ptr noundef nonnull align 8 dereferenceable(2752) %this, i32 noundef %h, i32 noundef %tail) #0 comdat align 2 {
entry:
  %this.addr = alloca ptr, align 8
  %h.addr = alloca i32, align 4
  %tail.addr = alloca i32, align 4
  store ptr %this, ptr %this.addr, align 8
  store i32 %h, ptr %h.addr, align 4
  store i32 %tail, ptr %tail.addr, align 4
  %this1 = load ptr, ptr %this.addr, align 8
  %0 = load i32, ptr %h.addr, align 4
  %call = call noundef zeroext i1 @_ZNK6hermes6parser6detail12JSParserImpl5checkENS0_9TokenKindE(ptr noundef nonnull align 8 dereferenceable(2752) %this1, i32 noundef %0)
  br i1 %call, label %lor.end, label %lor.rhs

lor.rhs:                                          ; preds = %entry
  %1 = load i32, ptr %tail.addr, align 4
  %call2 = call noundef zeroext i1 @_ZNK6hermes6parser6detail12JSParserImpl6checkNINS0_9TokenKindEEEbT_(ptr noundef nonnull align 8 dereferenceable(2752) %this1, i32 noundef %1)
  br label %lor.end

lor.end:                                          ; preds = %lor.rhs, %entry
  %2 = phi i1 [ true, %entry ], [ %call2, %lor.rhs ]
  ret i1 %2
}

; Function Attrs: mustprogress nounwind uwtable
define linkonce_odr hidden noundef zeroext i1 @_ZNK6hermes6parser6detail12JSParserImpl6checkNINS0_9TokenKindEJS4_S4_EEEbT_DpT0_(ptr noundef nonnull align 8 dereferenceable(2752) %this, i32 noundef %h, i32 noundef %tail, i32 noundef %tail1) #0 comdat align 2 {
entry:
  %this.addr = alloca ptr, align 8
  %h.addr = alloca i32, align 4
  %tail.addr = alloca i32, align 4
  %tail.addr2 = alloca i32, align 4
  store ptr %this, ptr %this.addr, align 8
  store i32 %h, ptr %h.addr, align 4
  store i32 %tail, ptr %tail.addr, align 4
  store i32 %tail1, ptr %tail.addr2, align 4
  %this3 = load ptr, ptr %this.addr, align 8
  %0 = load i32, ptr %h.addr, align 4
  %call = call noundef zeroext i1 @_ZNK6hermes6parser6detail12JSParserImpl5checkENS0_9TokenKindE(ptr noundef nonnull align 8 dereferenceable(2752) %this3, i32 noundef %0)
  br i1 %call, label %lor.end, label %lor.rhs

lor.rhs:                                          ; preds = %entry
  %1 = load i32, ptr %tail.addr, align 4
  %2 = load i32, ptr %tail.addr2, align 4
  %call4 = call noundef zeroext i1 @_ZNK6hermes6parser6detail12JSParserImpl6checkNINS0_9TokenKindEJS4_EEEbT_DpT0_(ptr noundef nonnull align 8 dereferenceable(2752) %this3, i32 noundef %1, i32 noundef %2)
  br label %lor.end

lor.end:                                          ; preds = %lor.rhs, %entry
  %3 = phi i1 [ true, %entry ], [ %call4, %lor.rhs ]
  ret i1 %3
}

; Function Attrs: mustprogress nounwind uwtable
define linkonce_odr hidden noundef zeroext i1 @_ZNK6hermes6parser6detail12JSParserImpl6checkNINS0_9TokenKindEJS4_S4_S4_EEEbT_DpT0_(ptr noundef nonnull align 8 dereferenceable(2752) %this, i32 noundef %h, i32 noundef %tail, i32 noundef %tail1, i32 noundef %tail3) #0 comdat align 2 {
entry:
  %this.addr = alloca ptr, align 8
  %h.addr = alloca i32, align 4
  %tail.addr = alloca i32, align 4
  %tail.addr2 = alloca i32, align 4
  %tail.addr4 = alloca i32, align 4
  store ptr %this, ptr %this.addr, align 8
  store i32 %h, ptr %h.addr, align 4
  store i32 %tail, ptr %tail.addr, align 4
  store i32 %tail1, ptr %tail.addr2, align 4
  store i32 %tail3, ptr %tail.addr4, align 4
  %this5 = load ptr, ptr %this.addr, align 8
  %0 = load i32, ptr %h.addr, align 4
  %call = call noundef zeroext i1 @_ZNK6hermes6parser6detail12JSParserImpl5checkENS0_9TokenKindE(ptr noundef nonnull align 8 dereferenceable(2752) %this5, i32 noundef %0)
  br i1 %call, label %lor.end, label %lor.rhs

lor.rhs:                                          ; preds = %entry
  %1 = load i32, ptr %tail.addr, align 4
  %2 = load i32, ptr %tail.addr2, align 4
  %3 = load i32, ptr %tail.addr4, align 4
  %call6 = call noundef zeroext i1 @_ZNK6hermes6parser6detail12JSParserImpl6checkNINS0_9TokenKindEJS4_S4_EEEbT_DpT0_(ptr noundef nonnull align 8 dereferenceable(2752) %this5, i32 noundef %1, i32 noundef %2, i32 noundef %3)
  br label %lor.end

lor.end:                                          ; preds = %lor.rhs, %entry
  %4 = phi i1 [ true, %entry ], [ %call6, %lor.rhs ]
  ret i1 %4
}

; Function Attrs: mustprogress nounwind uwtable
define linkonce_odr hidden noundef zeroext i1 @_ZNK6hermes6parser6detail12JSParserImpl6checkNINS0_9TokenKindEJS4_S4_S4_S4_EEEbT_DpT0_(ptr noundef nonnull align 8 dereferenceable(2752) %this, i32 noundef %h, i32 noundef %tail, i32 noundef %tail1, i32 noundef %tail3, i32 noundef %tail5) #0 comdat align 2 {
entry:
  %this.addr = alloca ptr, align 8
  %h.addr = alloca i32, align 4
  %tail.addr = alloca i32, align 4
  %tail.addr2 = alloca i32, align 4
  %tail.addr4 = alloca i32, align 4
  %tail.addr6 = alloca i32, align 4
  store ptr %this, ptr %this.addr, align 8
  store i32 %h, ptr %h.addr, align 4
  store i32 %tail, ptr %tail.addr, align 4
  store i32 %tail1, ptr %tail.addr2, align 4
  store i32 %tail3, ptr %tail.addr4, align 4
  store i32 %tail5, ptr %tail.addr6, align 4
  %this7 = load ptr, ptr %this.addr, align 8
  %0 = load i32, ptr %h.addr, align 4
  %call = call noundef zeroext i1 @_ZNK6hermes6parser6detail12JSParserImpl5checkENS0_9TokenKindE(ptr noundef nonnull align 8 dereferenceable(2752) %this7, i32 noundef %0)
  br i1 %call, label %lor.end, label %lor.rhs

lor.rhs:                                          ; preds = %entry
  %1 = load i32, ptr %tail.addr, align 4
  %2 = load i32, ptr %tail.addr2, align 4
  %3 = load i32, ptr %tail.addr4, align 4
  %4 = load i32, ptr %tail.addr6, align 4
  %call8 = call noundef zeroext i1 @_ZNK6hermes6parser6detail12JSParserImpl6checkNINS0_9TokenKindEJS4_S4_S4_EEEbT_DpT0_(ptr noundef nonnull align 8 dereferenceable(2752) %this7, i32 noundef %1, i32 noundef %2, i32 noundef %3, i32 noundef %4)
  br label %lor.end

lor.end:                                          ; preds = %lor.rhs, %entry
  %5 = phi i1 [ true, %entry ], [ %call8, %lor.rhs ]
  ret i1 %5
}

; Function Attrs: mustprogress nounwind uwtable
define linkonce_odr hidden noundef zeroext i1 @_ZNK6hermes6parser6detail12JSParserImpl6checkNINS0_9TokenKindEJS4_S4_S4_S4_S4_EEEbT_DpT0_(ptr noundef nonnull align 8 dereferenceable(2752) %this, i32 noundef %h, i32 noundef %tail, i32 noundef %tail1, i32 noundef %tail3, i32 noundef %tail5, i32 noundef %tail7) #0 comdat align 2 {
entry:
  %this.addr = alloca ptr, align 8
  %h.addr = alloca i32, align 4
  %tail.addr = alloca i32, align 4
  %tail.addr2 = alloca i32, align 4
  %tail.addr4 = alloca i32, align 4
  %tail.addr6 = alloca i32, align 4
  %tail.addr8 = alloca i32, align 4
  store ptr %this, ptr %this.addr, align 8
  store i32 %h, ptr %h.addr, align 4
  store i32 %tail, ptr %tail.addr, align 4
  store i32 %tail1, ptr %tail.addr2, align 4
  store i32 %tail3, ptr %tail.addr4, align 4
  store i32 %tail5, ptr %tail.addr6, align 4
  store i32 %tail7, ptr %tail.addr8, align 4
  %this9 = load ptr, ptr %this.addr, align 8
  %0 = load i32, ptr %h.addr, align 4
  %call = call noundef zeroext i1 @_ZNK6hermes6parser6detail12JSParserImpl5checkENS0_9TokenKindE(ptr noundef nonnull align 8 dereferenceable(2752) %this9, i32 noundef %0)
  br i1 %call, label %lor.end, label %lor.rhs

lor.rhs:                                          ; preds = %entry
  %1 = load i32, ptr %tail.addr, align 4
  %2 = load i32, ptr %tail.addr2, align 4
  %3 = load i32, ptr %tail.addr4, align 4
  %4 = load i32, ptr %tail.addr6, align 4
  %5 = load i32, ptr %tail.addr8, align 4
  %call10 = call noundef zeroext i1 @_ZNK6hermes6parser6detail12JSParserImpl6checkNINS0_9TokenKindEJS4_S4_S4_S4_EEEbT_DpT0_(ptr noundef nonnull align 8 dereferenceable(2752) %this9, i32 noundef %1, i32 noundef %2, i32 noundef %3, i32 noundef %4, i32 noundef %5)
  br label %lor.end

lor.end:                                          ; preds = %lor.rhs, %entry
  %6 = phi i1 [ true, %entry ], [ %call10, %lor.rhs ]
  ret i1 %6
}

; Function Attrs: mustprogress nounwind uwtable
define linkonce_odr hidden noundef ptr @_ZNK6hermes6parser5Token13getIdentifierEv(ptr noundef nonnull align 8 dereferenceable(65) %this) #0 comdat align 2 {
entry:
  %this.addr = alloca ptr, align 8
  store ptr %this, ptr %this.addr, align 8
  %this1 = load ptr, ptr %this.addr, align 8
  %ident_ = getelementptr inbounds %"class.hermes::parser::Token", ptr %this1, i32 0, i32 4
  %0 = load ptr, ptr %ident_, align 8
  ret ptr %0
}

; Function Attrs: mustprogress nounwind uwtable
define linkonce_odr hidden noundef i32 @_ZNK6hermes6parser5Token7getKindEv(ptr noundef nonnull align 8 dereferenceable(65) %this) #0 comdat align 2 {
entry:
  %this.addr = alloca ptr, align 8
  store ptr %this, ptr %this.addr, align 8
  %this1 = load ptr, ptr %this.addr, align 8
  %kind_ = getelementptr inbounds %"class.hermes::parser::Token", ptr %this1, i32 0, i32 0
  %0 = load i32, ptr %kind_, align 8
  ret i32 %0
}

; Function Attrs: mustprogress nounwind uwtable
define linkonce_odr hidden noundef zeroext i1 @_ZNK6hermes6parser6detail12JSParserImpl6checkNINS0_9TokenKindEJS4_S4_S4_S4_S4_S4_EEEbT_DpT0_(ptr noundef nonnull align 8 dereferenceable(2752) %this, i32 noundef %h, i32 noundef %tail, i32 noundef %tail1, i32 noundef %tail3, i32 noundef %tail5, i32 noundef %tail7, i32 noundef %tail9) #0 comdat align 2 {
entry:
  %this.addr = alloca ptr, align 8
  %h.addr = alloca i32, align 4
  %tail.addr = alloca i32, align 4
  %tail.addr2 = alloca i32, align 4
  %tail.addr4 = alloca i32, align 4
  %tail.addr6 = alloca i32, align 4
  %tail.addr8 = alloca i32, align 4
  %tail.addr10 = alloca i32, align 4
  store ptr %this, ptr %this.addr, align 8
  store i32 %h, ptr %h.addr, align 4
  store i32 %tail, ptr %tail.addr, align 4
  store i32 %tail1, ptr %tail.addr2, align 4
  store i32 %tail3, ptr %tail.addr4, align 4
  store i32 %tail5, ptr %tail.addr6, align 4
  store i32 %tail7, ptr %tail.addr8, align 4
  store i32 %tail9, ptr %tail.addr10, align 4
  %this11 = load ptr, ptr %this.addr, align 8
  %0 = load i32, ptr %h.addr, align 4
  %call = call noundef zeroext i1 @_ZNK6hermes6parser6detail12JSParserImpl5checkENS0_9TokenKindE(ptr noundef nonnull align 8 dereferenceable(2752) %this11, i32 noundef %0)
  br i1 %call, label %lor.end, label %lor.rhs

lor.rhs:                                          ; preds = %entry
  %1 = load i32, ptr %tail.addr, align 4
  %2 = load i32, ptr %tail.addr2, align 4
  %3 = load i32, ptr %tail.addr4, align 4
  %4 = load i32, ptr %tail.addr6, align 4
  %5 = load i32, ptr %tail.addr8, align 4
  %6 = load i32, ptr %tail.addr10, align 4
  %call12 = call noundef zeroext i1 @_ZNK6hermes6parser6detail12JSParserImpl6checkNINS0_9TokenKindEJS4_S4_S4_S4_S4_EEEbT_DpT0_(ptr noundef nonnull align 8 dereferenceable(2752) %this11, i32 noundef %1, i32 noundef %2, i32 noundef %3, i32 noundef %4, i32 noundef %5, i32 noundef %6)
  br label %lor.end

lor.end:                                          ; preds = %lor.rhs, %entry
  %7 = phi i1 [ true, %entry ], [ %call12, %lor.rhs ]
  ret i1 %7
}

; Function Attrs: mustprogress nounwind uwtable
define linkonce_odr hidden noundef zeroext i1 @_ZNK6hermes6parser6detail12JSParserImpl5checkENS0_9TokenKindE(ptr noundef nonnull align 8 dereferenceable(2752) %this, i32 noundef %kind) #0 comdat align 2 {
entry:
  %this.addr = alloca ptr, align 8
  %kind.addr = alloca i32, align 4
  store ptr %this, ptr %this.addr, align 8
  store i32 %kind, ptr %kind.addr, align 4
  %this1 = load ptr, ptr %this.addr, align 8
  %tok_ = getelementptr inbounds %"class.hermes::parser::detail::JSParserImpl", ptr %this1, i32 0, i32 3
  %0 = load ptr, ptr %tok_, align 8
  %call = call noundef i32 @_ZNK6hermes6parser5Token7getKindEv(ptr noundef nonnull align 8 dereferenceable(65) %0)
  %1 = load i32, ptr %kind.addr, align 4
  %cmp = icmp eq i32 %call, %1
  ret i1 %cmp
}

; Function Attrs: mustprogress nounwind uwtable
define linkonce_odr hidden noundef zeroext i1 @_ZNK6hermes6parser7JSLexer27isNewLineBeforeCurrentTokenEv(ptr noundef nonnull align 8 dereferenceable(1128) %this) #0 comdat align 2 {
entry:
  %this.addr = alloca ptr, align 8
  store ptr %this, ptr %this.addr, align 8
  %this1 = load ptr, ptr %this.addr, align 8
  %newLineBeforeCurrentToken_ = getelementptr inbounds %"class.hermes::parser::JSLexer", ptr %this1, i32 0, i32 16
  %0 = load i8, ptr %newLineBeforeCurrentToken_, align 8
  %tobool = trunc i8 %0 to i1
  ret i1 %tobool
}

; Function Attrs: mustprogress nounwind uwtable
define linkonce_odr hidden noundef zeroext i1 @_ZNK6hermes6parser6detail12JSParserImpl5checkEPNS_12UniqueStringE(ptr noundef nonnull align 8 dereferenceable(2752) %this, ptr noundef %ident) #0 comdat align 2 {
entry:
  %this.addr = alloca ptr, align 8
  %ident.addr = alloca ptr, align 8
  store ptr %this, ptr %this.addr, align 8
  store ptr %ident, ptr %ident.addr, align 8
  %this1 = load ptr, ptr %this.addr, align 8
  %tok_ = getelementptr inbounds %"class.hermes::parser::detail::JSParserImpl", ptr %this1, i32 0, i32 3
  %0 = load ptr, ptr %tok_, align 8
  %call = call noundef i32 @_ZNK6hermes6parser5Token7getKindEv(ptr noundef nonnull align 8 dereferenceable(65) %0)
  %cmp = icmp eq i32 %call, 1
  br i1 %cmp, label %land.rhs, label %land.end

land.rhs:                                         ; preds = %entry
  %tok_2 = getelementptr inbounds %"class.hermes::parser::detail::JSParserImpl", ptr %this1, i32 0, i32 3
  %1 = load ptr, ptr %tok_2, align 8
  %call3 = call noundef ptr @_ZNK6hermes6parser5Token13getIdentifierEv(ptr noundef nonnull align 8 dereferenceable(65) %1)
  %2 = load ptr, ptr %ident.addr, align 8
  %cmp4 = icmp eq ptr %call3, %2
  br label %land.end

land.end:                                         ; preds = %land.rhs, %entry
  %3 = phi i1 [ false, %entry ], [ %cmp4, %land.rhs ]
  ret i1 %3
}

; Function Attrs: mustprogress nounwind uwtable
define linkonce_odr hidden noundef zeroext i1 @_ZNK6hermes6parser6detail12JSParserImpl6checkNINS0_9TokenKindEJS4_S4_S4_S4_S4_S4_S4_EEEbT_DpT0_(ptr noundef nonnull align 8 dereferenceable(2752) %this, i32 noundef %h, i32 noundef %tail, i32 noundef %tail1, i32 noundef %tail3, i32 noundef %tail5, i32 noundef %tail7, i32 noundef %tail9, i32 noundef %tail11) #0 comdat align 2 {
entry:
  %this.addr = alloca ptr, align 8
  %h.addr = alloca i32, align 4
  %tail.addr = alloca i32, align 4
  %tail.addr2 = alloca i32, align 4
  %tail.addr4 = alloca i32, align 4
  %tail.addr6 = alloca i32, align 4
  %tail.addr8 = alloca i32, align 4
  %tail.addr10 = alloca i32, align 4
  %tail.addr12 = alloca i32, align 4
  store ptr %this, ptr %this.addr, align 8
  store i32 %h, ptr %h.addr, align 4
  store i32 %tail, ptr %tail.addr, align 4
  store i32 %tail1, ptr %tail.addr2, align 4
  store i32 %tail3, ptr %tail.addr4, align 4
  store i32 %tail5, ptr %tail.addr6, align 4
  store i32 %tail7, ptr %tail.addr8, align 4
  store i32 %tail9, ptr %tail.addr10, align 4
  store i32 %tail11, ptr %tail.addr12, align 4
  %this13 = load ptr, ptr %this.addr, align 8
  %0 = load i32, ptr %h.addr, align 4
  %call = call noundef zeroext i1 @_ZNK6hermes6parser6detail12JSParserImpl5checkENS0_9TokenKindE(ptr noundef nonnull align 8 dereferenceable(2752) %this13, i32 noundef %0)
  br i1 %call, label %lor.end, label %lor.rhs

lor.rhs:                                          ; preds = %entry
  %1 = load i32, ptr %tail.addr, align 4
  %2 = load i32, ptr %tail.addr2, align 4
  %3 = load i32, ptr %tail.addr4, align 4
  %4 = load i32, ptr %tail.addr6, align 4
  %5 = load i32, ptr %tail.addr8, align 4
  %6 = load i32, ptr %tail.addr10, align 4
  %7 = load i32, ptr %tail.addr12, align 4
  %call14 = call noundef zeroext i1 @_ZNK6hermes6parser6detail12JSParserImpl6checkNINS0_9TokenKindEJS4_S4_S4_S4_S4_S4_EEEbT_DpT0_(ptr noundef nonnull align 8 dereferenceable(2752) %this13, i32 noundef %1, i32 noundef %2, i32 noundef %3, i32 noundef %4, i32 noundef %5, i32 noundef %6, i32 noundef %7)
  br label %lor.end

lor.end:                                          ; preds = %lor.rhs, %entry
  %8 = phi i1 [ true, %entry ], [ %call14, %lor.rhs ]
  ret i1 %8
}

; Function Attrs: mustprogress nounwind uwtable
define hidden noundef zeroext i1 @_ZNK6hermes6parser6detail12JSParserImpl28checkEndAssignmentExpressionENS2_16OfEndsAssignmentE(ptr noundef nonnull align 8 dereferenceable(2752) %this, i32 noundef %ofEndsAssignment) #0 align 2 {
entry:
  %this.addr = alloca ptr, align 8
  %ofEndsAssignment.addr = alloca i32, align 4
  store ptr %this, ptr %this.addr, align 8
  store i32 %ofEndsAssignment, ptr %ofEndsAssignment.addr, align 4
  %this1 = load ptr, ptr %this.addr, align 8
  %call = call noundef zeroext i1 @_ZNK6hermes6parser6detail12JSParserImpl6checkNINS0_9TokenKindEJS4_S4_S4_S4_S4_S4_S4_EEEbT_DpT0_(ptr noundef nonnull align 8 dereferenceable(2752) %this1, i32 noundef 7, i32 noundef 54, i32 noundef 51, i32 noundef 56, i32 noundef 61, i32 noundef 60, i32 noundef 92, i32 noundef 120)
  br i1 %call, label %lor.end, label %lor.lhs.false

lor.lhs.false:                                    ; preds = %entry
  %0 = load i32, ptr %ofEndsAssignment.addr, align 4
  %cmp = icmp eq i32 %0, 1
  br i1 %cmp, label %land.lhs.true, label %lor.rhs

land.lhs.true:                                    ; preds = %lor.lhs.false
  %ofIdent_ = getelementptr inbounds %"class.hermes::parser::detail::JSParserImpl", ptr %this1, i32 0, i32 23
  %1 = load ptr, ptr %ofIdent_, align 8
  %call2 = call noundef zeroext i1 @_ZNK6hermes6parser6detail12JSParserImpl5checkEPNS_12UniqueStringE(ptr noundef nonnull align 8 dereferenceable(2752) %this1, ptr noundef %1)
  br i1 %call2, label %lor.end, label %lor.rhs

lor.rhs:                                          ; preds = %land.lhs.true, %lor.lhs.false
  %lexer_ = getelementptr inbounds %"class.hermes::parser::detail::JSParserImpl", ptr %this1, i32 0, i32 2
  %call3 = call noundef zeroext i1 @_ZNK6hermes6parser7JSLexer27isNewLineBeforeCurrentTokenEv(ptr noundef nonnull align 8 dereferenceable(1128) %lexer_)
  br label %lor.end

lor.end:                                          ; preds = %lor.rhs, %land.lhs.true, %entry
  %2 = phi i1 [ true, %land.lhs.true ], [ true, %entry ], [ %call3, %lor.rhs ]
  ret i1 %2
}