; Function Attrs: mustprogress nofree norecurse nosync nounwind willreturn memory(read, inaccessiblemem: none) uwtable
define hidden noundef zeroext i1 @_ZNK6hermes6parser6detail12JSParserImpl28checkEndAssignmentExpressionENS2_16OfEndsAssignmentE(ptr nocapture noundef nonnull readonly align 8 dereferenceable(2752) %this, i32 noundef %ofEndsAssignment) local_unnamed_addr #3 align 2 {
entry:
  %tok_.i.i = getelementptr inbounds i8, ptr %this, i64 1144
  %0 = load ptr, ptr %tok_.i.i, align 8
  %1 = load i32, ptr %0, align 8
  switch i32 %1, label %lor.lhs.false [
    i32 54, label %lor.end
    i32 7, label %lor.end
    i32 56, label %lor.end
    i32 51, label %lor.end
    i32 61, label %lor.end
    i32 60, label %lor.end
    i32 120, label %lor.end
    i32 92, label %lor.end
  ]

lor.lhs.false:                                    ; preds = %entry
  %cmp = icmp eq i32 %ofEndsAssignment, 1
  %cmp.i = icmp eq i32 %1, 1
  %or.cond = and i1 %cmp, %cmp.i
  br i1 %or.cond, label %_ZNK6hermes6parser6detail12JSParserImpl5checkEPNS_12UniqueStringE.exit, label %lor.rhs

_ZNK6hermes6parser6detail12JSParserImpl5checkEPNS_12UniqueStringE.exit: ; preds = %lor.lhs.false
  %ofIdent_ = getelementptr inbounds i8, ptr %this, i64 1280
  %2 = load ptr, ptr %ofIdent_, align 8
  %ident_.i.i = getelementptr inbounds i8, ptr %0, i64 32
  %3 = load ptr, ptr %ident_.i.i, align 8
  %cmp4.i = icmp eq ptr %3, %2
  br i1 %cmp4.i, label %lor.end, label %lor.rhs

lor.rhs:                                          ; preds = %_ZNK6hermes6parser6detail12JSParserImpl5checkEPNS_12UniqueStringE.exit, %lor.lhs.false
  %newLineBeforeCurrentToken_.i = getelementptr inbounds i8, ptr %this, i64 176
  %4 = load i8, ptr %newLineBeforeCurrentToken_.i, align 8
  %5 = and i8 %4, 1
  %tobool.i = icmp ne i8 %5, 0
  br label %lor.end

lor.end:                                          ; preds = %entry, %entry, %entry, %entry, %entry, %entry, %entry, %entry, %lor.rhs, %_ZNK6hermes6parser6detail12JSParserImpl5checkEPNS_12UniqueStringE.exit
  %6 = phi i1 [ true, %_ZNK6hermes6parser6detail12JSParserImpl5checkEPNS_12UniqueStringE.exit ], [ %tobool.i, %lor.rhs ], [ true, %entry ], [ true, %entry ], [ true, %entry ], [ true, %entry ], [ true, %entry ], [ true, %entry ], [ true, %entry ], [ true, %entry ]
  ret i1 %6
}